target datalayout = "e-m:e-p270:32:32-p271:32:32-p272:64:64-i64:64-i128:128-f80:128-n8:16:32:64-S128"
target triple = "x86_64-unknown-linux-gnu"

%class.aiMatrix3x3t = type { float, float, float, float, float, float, float, float, float }

; Function Attrs: mustprogress nounwind uwtable
define linkonce_odr hidden noundef ptr @_ZN12aiMatrix3x3tIfEixEj(ptr noundef nonnull align 4 dereferenceable(36) %this, i32 noundef %p_iIndex) #0 comdat align 2 {
entry:
  %retval = alloca ptr, align 8
  %this.addr = alloca ptr, align 8
  %p_iIndex.addr = alloca i32, align 4
  store ptr %this, ptr %this.addr, align 8
  store i32 %p_iIndex, ptr %p_iIndex.addr, align 4
  %this1 = load ptr, ptr %this.addr, align 8
  %0 = load i32, ptr %p_iIndex.addr, align 4
  switch i32 %0, label %sw.default [
    i32 0, label %sw.bb
    i32 1, label %sw.bb2
    i32 2, label %sw.bb3
  ]

sw.bb:                                            ; preds = %entry
  %a1 = getelementptr inbounds %class.aiMatrix3x3t, ptr %this1, i32 0, i32 0
  store ptr %a1, ptr %retval, align 8
  br label %return

sw.bb2:                                           ; preds = %entry
  %b1 = getelementptr inbounds %class.aiMatrix3x3t, ptr %this1, i32 0, i32 3
  store ptr %b1, ptr %retval, align 8
  br label %return

sw.bb3:                                           ; preds = %entry
  %c1 = getelementptr inbounds %class.aiMatrix3x3t, ptr %this1, i32 0, i32 6
  store ptr %c1, ptr %retval, align 8
  br label %return

sw.default:                                       ; preds = %entry
  br label %sw.epilog

sw.epilog:                                        ; preds = %sw.default
  %a14 = getelementptr inbounds %class.aiMatrix3x3t, ptr %this1, i32 0, i32 0
  store ptr %a14, ptr %retval, align 8
  br label %return

return:                                           ; preds = %sw.epilog, %sw.bb3, %sw.bb2, %sw.bb
  %1 = load ptr, ptr %retval, align 8
  ret ptr %1
}

; Function Attrs: mustprogress nounwind uwtable
define linkonce_odr hidden noundef ptr @_ZNK12aiMatrix3x3tIfEixEj(ptr noundef nonnull align 4 dereferenceable(36) %this, i32 noundef %p_iIndex) #0 comdat align 2 {
entry:
  %retval = alloca ptr, align 8
  %this.addr = alloca ptr, align 8
  %p_iIndex.addr = alloca i32, align 4
  store ptr %this, ptr %this.addr, align 8
  store i32 %p_iIndex, ptr %p_iIndex.addr, align 4
  %this1 = load ptr, ptr %this.addr, align 8
  %0 = load i32, ptr %p_iIndex.addr, align 4
  switch i32 %0, label %sw.default [
    i32 0, label %sw.bb
    i32 1, label %sw.bb2
    i32 2, label %sw.bb3
  ]

sw.bb:                                            ; preds = %entry
  %a1 = getelementptr inbounds %class.aiMatrix3x3t, ptr %this1, i32 0, i32 0
  store ptr %a1, ptr %retval, align 8
  br label %return

sw.bb2:                                           ; preds = %entry
  %b1 = getelementptr inbounds %class.aiMatrix3x3t, ptr %this1, i32 0, i32 3
  store ptr %b1, ptr %retval, align 8
  br label %return

sw.bb3:                                           ; preds = %entry
  %c1 = getelementptr inbounds %class.aiMatrix3x3t, ptr %this1, i32 0, i32 6
  store ptr %c1, ptr %retval, align 8
  br label %return

sw.default:                                       ; preds = %entry
  br label %sw.epilog

sw.epilog:                                        ; preds = %sw.default
  %a14 = getelementptr inbounds %class.aiMatrix3x3t, ptr %this1, i32 0, i32 0
  store ptr %a14, ptr %retval, align 8
  br label %return

return:                                           ; preds = %sw.epilog, %sw.bb3, %sw.bb2, %sw.bb
  %1 = load ptr, ptr %retval, align 8
  ret ptr %1
}

; Function Attrs: mustprogress nounwind uwtable
define linkonce_odr hidden void @_ZN12aiMatrix3x3tIfEC2Ev(ptr noundef nonnull align 4 dereferenceable(36) %this) unnamed_addr #0 comdat align 2 {
entry:
  %this.addr = alloca ptr, align 8
  store ptr %this, ptr %this.addr, align 8
  %this1 = load ptr, ptr %this.addr, align 8
  %a1 = getelementptr inbounds %class.aiMatrix3x3t, ptr %this1, i32 0, i32 0
  store float 1.000000e+00, ptr %a1, align 4
  %a2 = getelementptr inbounds %class.aiMatrix3x3t, ptr %this1, i32 0, i32 1
  store float 0.000000e+00, ptr %a2, align 4
  %a3 = getelementptr inbounds %class.aiMatrix3x3t, ptr %this1, i32 0, i32 2
  store float 0.000000e+00, ptr %a3, align 4
  %b1 = getelementptr inbounds %class.aiMatrix3x3t, ptr %this1, i32 0, i32 3
  store float 0.000000e+00, ptr %b1, align 4
  %b2 = getelementptr inbounds %class.aiMatrix3x3t, ptr %this1, i32 0, i32 4
  store float 1.000000e+00, ptr %b2, align 4
  %b3 = getelementptr inbounds %class.aiMatrix3x3t, ptr %this1, i32 0, i32 5
  store float 0.000000e+00, ptr %b3, align 4
  %c1 = getelementptr inbounds %class.aiMatrix3x3t, ptr %this1, i32 0, i32 6
  store float 0.000000e+00, ptr %c1, align 4
  %c2 = getelementptr inbounds %class.aiMatrix3x3t, ptr %this1, i32 0, i32 7
  store float 0.000000e+00, ptr %c2, align 4
  %c3 = getelementptr inbounds %class.aiMatrix3x3t, ptr %this1, i32 0, i32 8
  store float 1.000000e+00, ptr %c3, align 4
  ret void
}

; Function Attrs: mustprogress uwtable
define hidden void @_ZNK6Assimp21BlenderTessellatorP2T11ScaleMatrixERK12aiMatrix3x3tIfEf(ptr noalias sret(%class.aiMatrix3x3t) align 4 %agg.result, ptr noundef nonnull align 8 dereferenceable(8) %this, ptr noundef nonnull align 4 dereferenceable(36) %mtx, float noundef %scale) #2 align 2 {
entry:
  %this.addr = alloca ptr, align 8
  %mtx.addr = alloca ptr, align 8
  %scale.addr = alloca float, align 4
  %x = alloca i32, align 4
  %y = alloca i32, align 4
  store ptr %this, ptr %this.addr, align 8
  store ptr %mtx, ptr %mtx.addr, align 8
  store float %scale, ptr %scale.addr, align 4
  call void @_ZN12aiMatrix3x3tIfEC2Ev(ptr noundef nonnull align 4 dereferenceable(36) %agg.result) #14
  store i32 0, ptr %x, align 4
  br label %for.cond

for.cond:                                         ; preds = %for.inc8, %entry
  %0 = load i32, ptr %x, align 4
  %cmp = icmp ult i32 %0, 3
  br i1 %cmp, label %for.body, label %for.end10

for.body:                                         ; preds = %for.cond
  store i32 0, ptr %y, align 4
  br label %for.cond2

for.cond2:                                        ; preds = %for.inc, %for.body
  %1 = load i32, ptr %y, align 4
  %cmp3 = icmp ult i32 %1, 3
  br i1 %cmp3, label %for.body4, label %for.end

for.body4:                                        ; preds = %for.cond2
  %2 = load ptr, ptr %mtx.addr, align 8
  %3 = load i32, ptr %x, align 4
  %call = call noundef ptr @_ZNK12aiMatrix3x3tIfEixEj(ptr noundef nonnull align 4 dereferenceable(36) %2, i32 noundef %3)
  %4 = load i32, ptr %y, align 4
  %idxprom = zext i32 %4 to i64
  %arrayidx = getelementptr inbounds float, ptr %call, i64 %idxprom
  %5 = load float, ptr %arrayidx, align 4
  %6 = load float, ptr %scale.addr, align 4
  %mul = fmul float %5, %6
  %7 = load i32, ptr %x, align 4
  %call5 = call noundef ptr @_ZN12aiMatrix3x3tIfEixEj(ptr noundef nonnull align 4 dereferenceable(36) %agg.result, i32 noundef %7)
  %8 = load i32, ptr %y, align 4
  %idxprom6 = zext i32 %8 to i64
  %arrayidx7 = getelementptr inbounds float, ptr %call5, i64 %idxprom6
  store float %mul, ptr %arrayidx7, align 4
  br label %for.inc

for.inc:                                          ; preds = %for.body4
  %9 = load i32, ptr %y, align 4
  %inc = add i32 %9, 1
  store i32 %inc, ptr %y, align 4
  br label %for.cond2, !llvm.loop !13

for.end:                                          ; preds = %for.cond2
  br label %for.inc8

for.inc8:                                         ; preds = %for.end
  %10 = load i32, ptr %x, align 4
  %inc9 = add i32 %10, 1
  store i32 %inc9, ptr %x, align 4
  br label %for.cond, !llvm.loop !14

for.end10:                                        ; preds = %for.cond
  ret void
}