; Function Attrs: mustprogress nofree norecurse nosync nounwind memory(argmem: readwrite) uwtable
define hidden void @_ZNK6Assimp21BlenderTessellatorP2T11ScaleMatrixERK12aiMatrix3x3tIfEf(ptr noalias nocapture writeonly sret(%class.aiMatrix3x3t) align 4 %agg.result, ptr nocapture noundef nonnull readnone align 8 dereferenceable(8) %this, ptr nocapture noundef nonnull readonly align 4 dereferenceable(36) %mtx, float noundef %scale) local_unnamed_addr #11 align 2 {
entry:
  %b1.i = getelementptr inbounds i8, ptr %agg.result, i64 12
  store <4 x float> <float 1.000000e+00, float 0.000000e+00, float 0.000000e+00, float 0.000000e+00>, ptr %agg.result, align 4
  %b2.i = getelementptr inbounds i8, ptr %agg.result, i64 16
  %c1.i = getelementptr inbounds i8, ptr %agg.result, i64 24
  store <4 x float> <float 1.000000e+00, float 0.000000e+00, float 0.000000e+00, float 0.000000e+00>, ptr %b2.i, align 4
  %c3.i = getelementptr inbounds i8, ptr %agg.result, i64 32
  store float 1.000000e+00, ptr %c3.i, align 4
  %b1.i7 = getelementptr inbounds i8, ptr %mtx, i64 12
  %c1.i8 = getelementptr inbounds i8, ptr %mtx, i64 24
  br label %for.cond2.preheader

for.cond2.preheader:                              ; preds = %entry, %for.inc8
  %x.042 = phi i32 [ 0, %entry ], [ %inc9, %for.inc8 ]
  switch i32 %x.042, label %for.body4 [
    i32 2, label %for.body4.us
    i32 1, label %for.body4.us31
  ]

for.body4.us:                                     ; preds = %for.cond2.preheader, %for.body4.us
  %indvars.iv46 = phi i64 [ %indvars.iv.next47, %for.body4.us ], [ 0, %for.cond2.preheader ]
  %arrayidx16.us = getelementptr inbounds float, ptr %c1.i8, i64 %indvars.iv46
  %.pn.us = load float, ptr %arrayidx16.us, align 4
  %mul21.us = fmul float %.pn.us, %scale
  %arrayidx7.us = getelementptr inbounds float, ptr %c1.i, i64 %indvars.iv46
  store float %mul21.us, ptr %arrayidx7.us, align 4
  %indvars.iv.next47 = add nuw nsw i64 %indvars.iv46, 1
  %exitcond49.not = icmp eq i64 %indvars.iv.next47, 3
  br i1 %exitcond49.not, label %for.inc8, label %for.body4.us, !llvm.loop !17

for.body4.us31:                                   ; preds = %for.cond2.preheader, %for.body4.us31
  %indvars.iv = phi i64 [ %indvars.iv.next, %for.body4.us31 ], [ 0, %for.cond2.preheader ]
  %arrayidx25.us = getelementptr inbounds float, ptr %b1.i7, i64 %indvars.iv
  %.pn.us37 = load float, ptr %arrayidx25.us, align 4
  %mul21.us38 = fmul float %.pn.us37, %scale
  %arrayidx7.us39 = getelementptr inbounds float, ptr %b1.i, i64 %indvars.iv
  store float %mul21.us38, ptr %arrayidx7.us39, align 4
  %indvars.iv.next = add nuw nsw i64 %indvars.iv, 1
  %exitcond.not = icmp eq i64 %indvars.iv.next, 3
  br i1 %exitcond.not, label %for.inc8, label %for.body4.us31, !llvm.loop !17

for.body4:                                        ; preds = %for.cond2.preheader, %for.body4
  %indvars.iv50 = phi i64 [ %indvars.iv.next51, %for.body4 ], [ 0, %for.cond2.preheader ]
  %arrayidx = getelementptr inbounds float, ptr %mtx, i64 %indvars.iv50
  %.pn = load float, ptr %arrayidx, align 4
  %mul21 = fmul float %.pn, %scale
  %arrayidx7 = getelementptr inbounds float, ptr %agg.result, i64 %indvars.iv50
  store float %mul21, ptr %arrayidx7, align 4
  %indvars.iv.next51 = add nuw nsw i64 %indvars.iv50, 1
  %exitcond53.not = icmp eq i64 %indvars.iv.next51, 3
  br i1 %exitcond53.not, label %for.inc8, label %for.body4, !llvm.loop !17

for.inc8:                                         ; preds = %for.body4.us31, %for.body4.us, %for.body4
  %inc9 = add nuw nsw i32 %x.042, 1
  %exitcond54.not = icmp eq i32 %inc9, 3
  br i1 %exitcond54.not, label %for.end10, label %for.cond2.preheader, !llvm.loop !18

for.end10:                                        ; preds = %for.inc8
  ret void
}